; ModuleID = '32/1153.c'
source_filename = "32/1153.c"
target datalayout = "e-m:e-p270:32:32-p271:32:32-p272:64:64-i64:64-f80:128-n8:16:32:64-S128"
target triple = "x86_64-pc-linux-gnu"

@.str = private unnamed_addr constant [3 x i8] c"%d\00", align 1
@.str.1 = private unnamed_addr constant [5 x i8] c"%s%s\00", align 1
@.str.2 = private unnamed_addr constant [2 x i8] c"\0A\00", align 1

; Function Attrs: noinline nounwind uwtable
define dso_local i32 @main(i32 %0, i8** %1) #0 {
  %3 = alloca i32, align 4
  %4 = alloca i32, align 4
  %5 = alloca i8**, align 8
  %6 = alloca i32, align 4
  %7 = alloca [101 x i32], align 16
  %8 = alloca [101 x i32], align 16
  %9 = alloca [101 x i8], align 16
  %10 = alloca [101 x i8], align 16
  %11 = alloca i32, align 4
  %12 = alloca i32, align 4
  %13 = alloca i32, align 4
  %14 = alloca i32, align 4
  %15 = alloca i32, align 4
  %16 = alloca i32, align 4
  %17 = alloca i32, align 4
  store i32 0, i32* %3, align 4
  store i32 %0, i32* %4, align 4
  store i8** %1, i8*** %5, align 8
  %18 = call i32 (i8*, ...) @__isoc99_scanf(i8* getelementptr inbounds ([3 x i8], [3 x i8]* @.str, i64 0, i64 0), i32* %11)
  store i32 0, i32* %6, align 4
  br label %19

19:                                               ; preds = %168, %2
  %20 = load i32, i32* %6, align 4
  %21 = load i32, i32* %11, align 4
  %22 = icmp slt i32 %20, %21
  br i1 %22, label %23, label %171

23:                                               ; preds = %19
  store i32 0, i32* %16, align 4
  br label %24

24:                                               ; preds = %34, %23
  %25 = load i32, i32* %16, align 4
  %26 = icmp slt i32 %25, 101
  br i1 %26, label %27, label %37

27:                                               ; preds = %24
  %28 = load i32, i32* %16, align 4
  %29 = sext i32 %28 to i64
  %30 = getelementptr inbounds [101 x i32], [101 x i32]* %8, i64 0, i64 %29
  store i32 0, i32* %30, align 4
  %31 = load i32, i32* %16, align 4
  %32 = sext i32 %31 to i64
  %33 = getelementptr inbounds [101 x i32], [101 x i32]* %7, i64 0, i64 %32
  store i32 0, i32* %33, align 4
  br label %34

34:                                               ; preds = %27
  %35 = load i32, i32* %16, align 4
  %36 = add nsw i32 %35, 1
  store i32 %36, i32* %16, align 4
  br label %24

37:                                               ; preds = %24
  store i32 1, i32* %17, align 4
  %38 = getelementptr inbounds [101 x i8], [101 x i8]* %9, i64 0, i64 0
  %39 = getelementptr inbounds [101 x i8], [101 x i8]* %10, i64 0, i64 0
  %40 = call i32 (i8*, ...) @__isoc99_scanf(i8* getelementptr inbounds ([5 x i8], [5 x i8]* @.str.1, i64 0, i64 0), i8* %38, i8* %39)
  %41 = getelementptr inbounds [101 x i8], [101 x i8]* %9, i64 0, i64 0
  %42 = call i64 @strlen(i8* %41) #3
  %43 = trunc i64 %42 to i32
  store i32 %43, i32* %12, align 4
  %44 = getelementptr inbounds [101 x i8], [101 x i8]* %10, i64 0, i64 0
  %45 = call i64 @strlen(i8* %44) #3
  %46 = trunc i64 %45 to i32
  store i32 %46, i32* %13, align 4
  store i32 0, i32* %14, align 4
  br label %47

47:                                               ; preds = %64, %37
  %48 = load i32, i32* %14, align 4
  %49 = load i32, i32* %12, align 4
  %50 = icmp slt i32 %48, %49
  br i1 %50, label %51, label %67

51:                                               ; preds = %47
  %52 = load i32, i32* %14, align 4
  %53 = sext i32 %52 to i64
  %54 = getelementptr inbounds [101 x i8], [101 x i8]* %9, i64 0, i64 %53
  %55 = load i8, i8* %54, align 1
  %56 = sext i8 %55 to i32
  %57 = sub nsw i32 %56, 48
  %58 = load i32, i32* %12, align 4
  %59 = sub nsw i32 100, %58
  %60 = load i32, i32* %14, align 4
  %61 = add nsw i32 %59, %60
  %62 = sext i32 %61 to i64
  %63 = getelementptr inbounds [101 x i32], [101 x i32]* %7, i64 0, i64 %62
  store i32 %57, i32* %63, align 4
  br label %64

64:                                               ; preds = %51
  %65 = load i32, i32* %14, align 4
  %66 = add nsw i32 %65, 1
  store i32 %66, i32* %14, align 4
  br label %47

67:                                               ; preds = %47
  store i32 0, i32* %14, align 4
  br label %68

68:                                               ; preds = %85, %67
  %69 = load i32, i32* %14, align 4
  %70 = load i32, i32* %13, align 4
  %71 = icmp slt i32 %69, %70
  br i1 %71, label %72, label %88

72:                                               ; preds = %68
  %73 = load i32, i32* %14, align 4
  %74 = sext i32 %73 to i64
  %75 = getelementptr inbounds [101 x i8], [101 x i8]* %10, i64 0, i64 %74
  %76 = load i8, i8* %75, align 1
  %77 = sext i8 %76 to i32
  %78 = sub nsw i32 %77, 48
  %79 = load i32, i32* %13, align 4
  %80 = sub nsw i32 100, %79
  %81 = load i32, i32* %14, align 4
  %82 = add nsw i32 %80, %81
  %83 = sext i32 %82 to i64
  %84 = getelementptr inbounds [101 x i32], [101 x i32]* %8, i64 0, i64 %83
  store i32 %78, i32* %84, align 4
  br label %85

85:                                               ; preds = %72
  %86 = load i32, i32* %14, align 4
  %87 = add nsw i32 %86, 1
  store i32 %87, i32* %14, align 4
  br label %68

88:                                               ; preds = %68
  store i32 99, i32* %14, align 4
  br label %89

89:                                               ; preds = %133, %88
  %90 = load i32, i32* %14, align 4
  %91 = icmp sgt i32 %90, 0
  br i1 %91, label %92, label %136

92:                                               ; preds = %89
  %93 = load i32, i32* %14, align 4
  %94 = sext i32 %93 to i64
  %95 = getelementptr inbounds [101 x i32], [101 x i32]* %7, i64 0, i64 %94
  %96 = load i32, i32* %95, align 4
  %97 = load i32, i32* %14, align 4
  %98 = sext i32 %97 to i64
  %99 = getelementptr inbounds [101 x i32], [101 x i32]* %8, i64 0, i64 %98
  %100 = load i32, i32* %99, align 4
  %101 = icmp sge i32 %96, %100
  br i1 %101, label %102, label %115

102:                                              ; preds = %92
  %103 = load i32, i32* %14, align 4
  %104 = sext i32 %103 to i64
  %105 = getelementptr inbounds [101 x i32], [101 x i32]* %7, i64 0, i64 %104
  %106 = load i32, i32* %105, align 4
  %107 = load i32, i32* %14, align 4
  %108 = sext i32 %107 to i64
  %109 = getelementptr inbounds [101 x i32], [101 x i32]* %8, i64 0, i64 %108
  %110 = load i32, i32* %109, align 4
  %111 = sub nsw i32 %106, %110
  %112 = load i32, i32* %14, align 4
  %113 = sext i32 %112 to i64
  %114 = getelementptr inbounds [101 x i32], [101 x i32]* %7, i64 0, i64 %113
  store i32 %111, i32* %114, align 4
  br label %132

115:                                              ; preds = %92
  %116 = load i32, i32* %14, align 4
  %117 = sext i32 %116 to i64
  %118 = getelementptr inbounds [101 x i32], [101 x i32]* %8, i64 0, i64 %117
  %119 = load i32, i32* %118, align 4
  %120 = sub nsw i32 %119, 10
  %121 = load i32, i32* %14, align 4
  %122 = sext i32 %121 to i64
  %123 = getelementptr inbounds [101 x i32], [101 x i32]* %7, i64 0, i64 %122
  %124 = load i32, i32* %123, align 4
  %125 = sub nsw i32 %124, %120
  store i32 %125, i32* %123, align 4
  %126 = load i32, i32* %14, align 4
  %127 = sub nsw i32 %126, 1
  %128 = sext i32 %127 to i64
  %129 = getelementptr inbounds [101 x i32], [101 x i32]* %7, i64 0, i64 %128
  %130 = load i32, i32* %129, align 4
  %131 = sub nsw i32 %130, 1
  store i32 %131, i32* %129, align 4
  br label %132

132:                                              ; preds = %115, %102
  br label %133

133:                                              ; preds = %132
  %134 = load i32, i32* %14, align 4
  %135 = add nsw i32 %134, -1
  store i32 %135, i32* %14, align 4
  br label %89

136:                                              ; preds = %89
  store i32 0, i32* %14, align 4
  br label %137

137:                                              ; preds = %149, %136
  %138 = load i32, i32* %14, align 4
  %139 = icmp slt i32 %138, 100
  br i1 %139, label %140, label %152

140:                                              ; preds = %137
  %141 = load i32, i32* %14, align 4
  %142 = sext i32 %141 to i64
  %143 = getelementptr inbounds [101 x i32], [101 x i32]* %7, i64 0, i64 %142
  %144 = load i32, i32* %143, align 4
  %145 = icmp ne i32 %144, 0
  br i1 %145, label %146, label %148

146:                                              ; preds = %140
  %147 = load i32, i32* %14, align 4
  store i32 %147, i32* %17, align 4
  br label %152

148:                                              ; preds = %140
  br label %149

149:                                              ; preds = %148
  %150 = load i32, i32* %14, align 4
  %151 = add nsw i32 %150, 1
  store i32 %151, i32* %14, align 4
  br label %137

152:                                              ; preds = %146, %137
  %153 = load i32, i32* %17, align 4
  store i32 %153, i32* %14, align 4
  br label %154

154:                                              ; preds = %163, %152
  %155 = load i32, i32* %14, align 4
  %156 = icmp slt i32 %155, 100
  br i1 %156, label %157, label %166

157:                                              ; preds = %154
  %158 = load i32, i32* %14, align 4
  %159 = sext i32 %158 to i64
  %160 = getelementptr inbounds [101 x i32], [101 x i32]* %7, i64 0, i64 %159
  %161 = load i32, i32* %160, align 4
  %162 = call i32 (i8*, ...) @printf(i8* getelementptr inbounds ([3 x i8], [3 x i8]* @.str, i64 0, i64 0), i32 %161)
  br label %163

163:                                              ; preds = %157
  %164 = load i32, i32* %14, align 4
  %165 = add nsw i32 %164, 1
  store i32 %165, i32* %14, align 4
  br label %154

166:                                              ; preds = %154
  %167 = call i32 (i8*, ...) @printf(i8* getelementptr inbounds ([2 x i8], [2 x i8]* @.str.2, i64 0, i64 0))
  br label %168

168:                                              ; preds = %166
  %169 = load i32, i32* %6, align 4
  %170 = add nsw i32 %169, 1
  store i32 %170, i32* %6, align 4
  br label %19

171:                                              ; preds = %19
  ret i32 0
}

declare dso_local i32 @__isoc99_scanf(i8*, ...) #1

; Function Attrs: nounwind readonly
declare dso_local i64 @strlen(i8*) #2

declare dso_local i32 @printf(i8*, ...) #1


!llvm.module.flags = !{!0}
!llvm.ident = !{!1}

!0 = !{i32 1, !"wchar_size", i32 4}
!1 = !{!"clang version 10.0.0-4ubuntu1 "}
